target datalayout = "e-m:e-p270:32:32-p271:32:32-p272:64:64-i64:64-i128:128-f80:128-n8:16:32:64-S128"
target triple = "x86_64-pc-linux-gnu"

@.str.182 = private unnamed_addr constant [31 x i8] c"boundaryStart: found %s in %s\0A\00", align 1

; Function Attrs: nounwind uwtable
define internal i32 @boundaryStart(ptr noundef %0, ptr noundef %1) #0 {
  %3 = alloca i32, align 4
  %4 = alloca ptr, align 8
  %5 = alloca ptr, align 8
  %6 = alloca ptr, align 8
  %7 = alloca ptr, align 8
  %8 = alloca i32, align 4
  %9 = alloca [1001 x i8], align 16
  %10 = alloca ptr, align 8
  %11 = alloca ptr, align 8
  %12 = alloca ptr, align 8
  store ptr %0, ptr %4, align 8
  store ptr %1, ptr %5, align 8
  %13 = load ptr, ptr %4, align 8
  %14 = icmp eq ptr %13, null
  br i1 %14, label %20, label %15

15:                                               ; preds = %2
  %16 = load ptr, ptr %4, align 8
  %17 = load i8, ptr %16, align 1
  %18 = sext i8 %17 to i32
  %19 = icmp eq i32 %18, 0
  br i1 %19, label %20, label %21

20:                                               ; preds = %15, %2
  store i32 0, ptr %3, align 4
  br label %215

21:                                               ; preds = %15
  %22 = load ptr, ptr %5, align 8
  %23 = icmp eq ptr %22, null
  br i1 %23, label %24, label %25

24:                                               ; preds = %21
  store i32 0, ptr %3, align 4
  br label %215

25:                                               ; preds = %21
  %26 = load ptr, ptr %4, align 8
  %27 = call noalias ptr @strdup(ptr noundef %26) #8
  store ptr %27, ptr %10, align 8
  %28 = load ptr, ptr %10, align 8
  %29 = icmp ne ptr %28, null
  br i1 %29, label %32, label %30

30:                                               ; preds = %25
  %31 = load ptr, ptr %4, align 8
  store ptr %31, ptr %10, align 8
  br label %32

32:                                               ; preds = %30, %25
  %33 = load ptr, ptr %10, align 8
  %34 = load ptr, ptr %4, align 8
  %35 = icmp ne ptr %33, %34
  br i1 %35, label %36, label %61

36:                                               ; preds = %32
  %37 = load ptr, ptr %4, align 8
  %38 = call i64 @strlen(ptr noundef %37) #9
  %39 = icmp ne i64 %38, 0
  br i1 %39, label %40, label %61

40:                                               ; preds = %36
  %41 = load ptr, ptr %10, align 8
  %42 = load ptr, ptr %4, align 8
  %43 = call i64 @strlen(ptr noundef %42) #9
  %44 = getelementptr inbounds i8, ptr %41, i64 %43
  %45 = getelementptr inbounds i8, ptr %44, i64 -1
  store ptr %45, ptr %11, align 8
  br label %46

46:                                               ; preds = %57, %40
  %47 = load ptr, ptr %11, align 8
  %48 = load ptr, ptr %10, align 8
  %49 = icmp uge ptr %47, %48
  br i1 %49, label %50, label %55

50:                                               ; preds = %46
  %51 = load ptr, ptr %11, align 8
  %52 = load i8, ptr %51, align 1
  %53 = sext i8 %52 to i32
  %54 = icmp eq i32 %53, 32
  br label %55

55:                                               ; preds = %50, %46
  %56 = phi i1 [ false, %46 ], [ %54, %50 ]
  br i1 %56, label %57, label %60

57:                                               ; preds = %55
  %58 = load ptr, ptr %11, align 8
  %59 = getelementptr inbounds i8, ptr %58, i32 -1
  store ptr %59, ptr %11, align 8
  store i8 0, ptr %58, align 1
  br label %46

60:                                               ; preds = %55
  br label %61

61:                                               ; preds = %60, %36, %32
  %62 = load ptr, ptr %10, align 8
  %63 = load ptr, ptr %4, align 8
  %64 = icmp ne ptr %62, %63
  br i1 %64, label %65, label %68

65:                                               ; preds = %61
  %66 = load ptr, ptr %10, align 8
  %67 = call i32 @cli_chomp(ptr noundef %66)
  br label %68

68:                                               ; preds = %65, %61
  %69 = load ptr, ptr %10, align 8
  %70 = load i8, ptr %69, align 1
  %71 = sext i8 %70 to i32
  %72 = icmp ne i32 %71, 45
  br i1 %72, label %73, label %85

73:                                               ; preds = %68
  %74 = load ptr, ptr %10, align 8
  %75 = load i8, ptr %74, align 1
  %76 = sext i8 %75 to i32
  %77 = icmp ne i32 %76, 40
  br i1 %77, label %78, label %85

78:                                               ; preds = %73
  %79 = load ptr, ptr %10, align 8
  %80 = load ptr, ptr %4, align 8
  %81 = icmp ne ptr %79, %80
  br i1 %81, label %82, label %84

82:                                               ; preds = %78
  %83 = load ptr, ptr %10, align 8
  call void @free(ptr noundef %83) #8
  br label %84

84:                                               ; preds = %82, %78
  store i32 0, ptr %3, align 4
  br label %215

85:                                               ; preds = %73, %68
  %86 = load ptr, ptr %10, align 8
  %87 = call ptr @strchr(ptr noundef %86, i32 noundef 45) #9
  %88 = icmp eq ptr %87, null
  br i1 %88, label %89, label %96

89:                                               ; preds = %85
  %90 = load ptr, ptr %10, align 8
  %91 = load ptr, ptr %4, align 8
  %92 = icmp ne ptr %90, %91
  br i1 %92, label %93, label %95

93:                                               ; preds = %89
  %94 = load ptr, ptr %10, align 8
  call void @free(ptr noundef %94) #8
  br label %95

95:                                               ; preds = %93, %89
  store i32 0, ptr %3, align 4
  br label %215

96:                                               ; preds = %85
  %97 = load ptr, ptr %10, align 8
  %98 = call i64 @strlen(ptr noundef %97) #9
  %99 = icmp ule i64 %98, 1001
  br i1 %99, label %100, label %104

100:                                              ; preds = %96
  store ptr null, ptr %7, align 8
  %101 = load ptr, ptr %10, align 8
  %102 = getelementptr inbounds [1001 x i8], ptr %9, i64 0, i64 0
  %103 = call ptr @rfc822comments(ptr noundef %101, ptr noundef %102)
  store ptr %103, ptr %6, align 8
  br label %107

104:                                              ; preds = %96
  %105 = load ptr, ptr %10, align 8
  %106 = call ptr @rfc822comments(ptr noundef %105, ptr noundef null)
  store ptr %106, ptr %7, align 8
  store ptr %106, ptr %6, align 8
  br label %107

107:                                              ; preds = %104, %100
  %108 = load ptr, ptr %6, align 8
  %109 = icmp eq ptr %108, null
  br i1 %109, label %110, label %112

110:                                              ; preds = %107
  %111 = load ptr, ptr %10, align 8
  store ptr %111, ptr %6, align 8
  br label %112

112:                                              ; preds = %110, %107
  %113 = load ptr, ptr %6, align 8
  %114 = getelementptr inbounds i8, ptr %113, i32 1
  store ptr %114, ptr %6, align 8
  %115 = load i8, ptr %113, align 1
  %116 = sext i8 %115 to i32
  %117 = icmp ne i32 %116, 45
  br i1 %117, label %123, label %118

118:                                              ; preds = %112
  %119 = load ptr, ptr %6, align 8
  %120 = load i8, ptr %119, align 1
  %121 = sext i8 %120 to i32
  %122 = icmp eq i32 %121, 0
  br i1 %122, label %123, label %135

123:                                              ; preds = %118, %112
  %124 = load ptr, ptr %7, align 8
  %125 = icmp ne ptr %124, null
  br i1 %125, label %126, label %128

126:                                              ; preds = %123
  %127 = load ptr, ptr %7, align 8
  call void @free(ptr noundef %127) #8
  br label %128

128:                                              ; preds = %126, %123
  %129 = load ptr, ptr %10, align 8
  %130 = load ptr, ptr %4, align 8
  %131 = icmp ne ptr %129, %130
  br i1 %131, label %132, label %134

132:                                              ; preds = %128
  %133 = load ptr, ptr %10, align 8
  call void @free(ptr noundef %133) #8
  br label %134

134:                                              ; preds = %132, %128
  store i32 0, ptr %3, align 4
  br label %215

135:                                              ; preds = %118
  %136 = load ptr, ptr %6, align 8
  %137 = getelementptr inbounds i8, ptr %136, i64 1
  %138 = load ptr, ptr %5, align 8
  %139 = call ptr @strstr(ptr noundef %137, ptr noundef %138) #9
  %140 = icmp ne ptr %139, null
  br i1 %140, label %146, label %141

141:                                              ; preds = %135
  %142 = load ptr, ptr %10, align 8
  %143 = load ptr, ptr %5, align 8
  %144 = call ptr @strstr(ptr noundef %142, ptr noundef %143) #9
  %145 = icmp ne ptr %144, null
  br i1 %145, label %146, label %182

146:                                              ; preds = %141, %135
  %147 = load ptr, ptr %6, align 8
  store ptr %147, ptr %12, align 8
  store i32 0, ptr %8, align 4
  br label %148

148:                                              ; preds = %156, %146
  %149 = load ptr, ptr %12, align 8
  %150 = getelementptr inbounds i8, ptr %149, i32 1
  store ptr %150, ptr %12, align 8
  %151 = load ptr, ptr %5, align 8
  %152 = call i32 @strcmp(ptr noundef %150, ptr noundef %151) #9
  %153 = icmp eq i32 %152, 0
  br i1 %153, label %154, label %155

154:                                              ; preds = %148
  store i32 1, ptr %8, align 4
  br label %161

155:                                              ; preds = %148
  br label %156

156:                                              ; preds = %155
  %157 = load ptr, ptr %12, align 8
  %158 = load i8, ptr %157, align 1
  %159 = sext i8 %158 to i32
  %160 = icmp eq i32 %159, 45
  br i1 %160, label %148, label %161

161:                                              ; preds = %156, %154
  %162 = load i32, ptr %8, align 4
  %163 = icmp eq i32 %162, 0
  br i1 %163, label %164, label %181

164:                                              ; preds = %161
  %165 = load ptr, ptr %4, align 8
  %166 = getelementptr inbounds i8, ptr %165, i64 1
  store ptr %166, ptr %12, align 8
  br label %167

167:                                              ; preds = %175, %164
  %168 = load ptr, ptr %12, align 8
  %169 = getelementptr inbounds i8, ptr %168, i32 1
  store ptr %169, ptr %12, align 8
  %170 = load ptr, ptr %5, align 8
  %171 = call i32 @strcmp(ptr noundef %169, ptr noundef %170) #9
  %172 = icmp eq i32 %171, 0
  br i1 %172, label %173, label %174

173:                                              ; preds = %167
  store i32 1, ptr %8, align 4
  br label %180

174:                                              ; preds = %167
  br label %175

175:                                              ; preds = %174
  %176 = load ptr, ptr %12, align 8
  %177 = load i8, ptr %176, align 1
  %178 = sext i8 %177 to i32
  %179 = icmp eq i32 %178, 45
  br i1 %179, label %167, label %180

180:                                              ; preds = %175, %173
  br label %181

181:                                              ; preds = %180, %161
  br label %196

182:                                              ; preds = %141
  %183 = load ptr, ptr %6, align 8
  %184 = getelementptr inbounds i8, ptr %183, i32 1
  store ptr %184, ptr %6, align 8
  %185 = load i8, ptr %183, align 1
  %186 = sext i8 %185 to i32
  %187 = icmp ne i32 %186, 45
  br i1 %187, label %188, label %189

188:                                              ; preds = %182
  store i32 0, ptr %8, align 4
  br label %195

189:                                              ; preds = %182
  %190 = load ptr, ptr %6, align 8
  %191 = load ptr, ptr %5, align 8
  %192 = call i32 @strcasecmp(ptr noundef %190, ptr noundef %191) #9
  %193 = icmp eq i32 %192, 0
  %194 = zext i1 %193 to i32
  store i32 %194, ptr %8, align 4
  br label %195

195:                                              ; preds = %189, %188
  br label %196

196:                                              ; preds = %195, %181
  %197 = load ptr, ptr %7, align 8
  %198 = icmp ne ptr %197, null
  br i1 %198, label %199, label %201

199:                                              ; preds = %196
  %200 = load ptr, ptr %7, align 8
  call void @free(ptr noundef %200) #8
  br label %201

201:                                              ; preds = %199, %196
  %202 = load i32, ptr %8, align 4
  %203 = icmp eq i32 %202, 1
  br i1 %203, label %204, label %207

204:                                              ; preds = %201
  %205 = load ptr, ptr %5, align 8
  %206 = load ptr, ptr %4, align 8
  call void (ptr, ...) @cli_dbgmsg(ptr noundef @.str.182, ptr noundef %205, ptr noundef %206)
  br label %207

207:                                              ; preds = %204, %201
  %208 = load ptr, ptr %10, align 8
  %209 = load ptr, ptr %4, align 8
  %210 = icmp ne ptr %208, %209
  br i1 %210, label %211, label %213

211:                                              ; preds = %207
  %212 = load ptr, ptr %10, align 8
  call void @free(ptr noundef %212) #8
  br label %213

213:                                              ; preds = %211, %207
  %214 = load i32, ptr %8, align 4
  store i32 %214, ptr %3, align 4
  br label %215

215:                                              ; preds = %213, %134, %95, %84, %24, %20
  %216 = load i32, ptr %3, align 4
  ret i32 %216
}