; Function Attrs: nounwind uwtable
define internal fastcc i32 @boundaryStart(ptr noundef %0, ptr noundef %1) unnamed_addr #0 {
  %3 = alloca [1001 x i8], align 16
  %4 = icmp eq ptr %0, null
  br i1 %4, label %74, label %5

5:                                                ; preds = %2
  %6 = load i8, ptr %0, align 1
  %7 = icmp eq i8 %6, 0
  %8 = icmp eq ptr %1, null
  %or.cond = or i1 %8, %7
  br i1 %or.cond, label %74, label %9

9:                                                ; preds = %5
  %10 = tail call noalias ptr @strdup(ptr noundef nonnull %0) #19
  %.not = icmp eq ptr %10, null
  %spec.select = select i1 %.not, ptr %0, ptr %10
  %.not78 = icmp eq ptr %spec.select, %0
  br i1 %.not78, label %.critedge91, label %11

11:                                               ; preds = %9
  %12 = tail call i64 @strlen(ptr noundef nonnull dereferenceable(1) %0) #21
  %.not79 = icmp eq i64 %12, 0
  %13 = getelementptr inbounds i8, ptr %spec.select, i64 %12
  %.06496 = getelementptr inbounds i8, ptr %13, i64 -1
  %.not8097 = icmp ult ptr %.06496, %spec.select
  %or.cond100 = select i1 %.not79, i1 true, i1 %.not8097
  br i1 %or.cond100, label %.critedge, label %.lr.ph

.lr.ph:                                           ; preds = %11, %16
  %.06498 = phi ptr [ %.064, %16 ], [ %.06496, %11 ]
  %14 = load i8, ptr %.06498, align 1
  %15 = icmp eq i8 %14, 32
  br i1 %15, label %16, label %.critedge

16:                                               ; preds = %.lr.ph
  store i8 0, ptr %.06498, align 1
  %.064 = getelementptr inbounds i8, ptr %.06498, i64 -1
  %.not80 = icmp ult ptr %.064, %spec.select
  br i1 %.not80, label %.critedge, label %.lr.ph

.critedge:                                        ; preds = %.lr.ph, %16, %11
  %17 = tail call i32 @cli_chomp(ptr noundef nonnull %spec.select) #19
  br label %.critedge91

.critedge91:                                      ; preds = %9, %.critedge
  %18 = load i8, ptr %spec.select, align 1
  switch i8 %18, label %19 [
    i8 45, label %21
    i8 40, label %21
  ]

19:                                               ; preds = %.critedge91
  br i1 %.not78, label %74, label %20

20:                                               ; preds = %19
  tail call void @free(ptr noundef nonnull %spec.select) #19
  br label %74

21:                                               ; preds = %.critedge91, %.critedge91
  %22 = tail call ptr @strchr(ptr noundef nonnull dereferenceable(1) %spec.select, i32 noundef 45) #21
  %23 = icmp eq ptr %22, null
  br i1 %23, label %24, label %26

24:                                               ; preds = %21
  br i1 %.not78, label %74, label %25

25:                                               ; preds = %24
  tail call void @free(ptr noundef nonnull %spec.select) #19
  br label %74

26:                                               ; preds = %21
  %27 = tail call i64 @strlen(ptr noundef nonnull dereferenceable(1) %spec.select) #21
  %28 = icmp ult i64 %27, 1002
  br i1 %28, label %29, label %31

29:                                               ; preds = %26
  %30 = call fastcc ptr @rfc822comments(ptr noundef nonnull %spec.select, ptr noundef nonnull %3)
  br label %33

31:                                               ; preds = %26
  %32 = tail call fastcc ptr @rfc822comments(ptr noundef nonnull %spec.select, ptr noundef null)
  br label %33

33:                                               ; preds = %31, %29
  %.069 = phi ptr [ %30, %29 ], [ %32, %31 ]
  %.068 = phi ptr [ null, %29 ], [ %32, %31 ]
  %34 = icmp eq ptr %.069, null
  %spec.select92 = select i1 %34, ptr %spec.select, ptr %.069
  %35 = getelementptr inbounds i8, ptr %spec.select92, i64 1
  %36 = load i8, ptr %spec.select92, align 1
  %.not83 = icmp eq i8 %36, 45
  br i1 %.not83, label %37, label %40

37:                                               ; preds = %33
  %38 = load i8, ptr %35, align 1
  %39 = icmp eq i8 %38, 0
  br i1 %39, label %40, label %44

40:                                               ; preds = %37, %33
  %.not90 = icmp eq ptr %.068, null
  br i1 %.not90, label %42, label %41

41:                                               ; preds = %40
  call void @free(ptr noundef nonnull %.068) #19
  br label %42

42:                                               ; preds = %41, %40
  br i1 %.not78, label %74, label %43

43:                                               ; preds = %42
  call void @free(ptr noundef nonnull %spec.select) #19
  br label %74

44:                                               ; preds = %37
  %45 = getelementptr inbounds i8, ptr %spec.select92, i64 2
  %46 = call ptr @strstr(ptr noundef nonnull dereferenceable(1) %45, ptr noundef nonnull dereferenceable(1) %1) #21
  %.not84 = icmp eq ptr %46, null
  br i1 %.not84, label %47, label %.preheader

47:                                               ; preds = %44
  %48 = call ptr @strstr(ptr noundef nonnull dereferenceable(1) %spec.select, ptr noundef nonnull dereferenceable(1) %1) #21
  %.not85 = icmp eq ptr %48, null
  br i1 %.not85, label %64, label %.preheader

.preheader:                                       ; preds = %47, %44
  br label %49

49:                                               ; preds = %.preheader, %52
  %.0 = phi ptr [ %50, %52 ], [ %35, %.preheader ]
  %50 = getelementptr inbounds i8, ptr %.0, i64 1
  %51 = call i32 @strcmp(ptr noundef nonnull dereferenceable(1) %50, ptr noundef nonnull dereferenceable(1) %1) #21
  %.not87 = icmp eq i32 %51, 0
  br i1 %.not87, label %.critedge94, label %52

52:                                               ; preds = %49
  %53 = load i8, ptr %50, align 1
  %54 = icmp eq i8 %53, 45
  br i1 %54, label %49, label %55

55:                                               ; preds = %52
  %56 = getelementptr inbounds i8, ptr %0, i64 1
  br label %57

57:                                               ; preds = %61, %55
  %.1 = phi ptr [ %56, %55 ], [ %58, %61 ]
  %58 = getelementptr inbounds i8, ptr %.1, i64 1
  %59 = call i32 @strcmp(ptr noundef nonnull dereferenceable(1) %58, ptr noundef nonnull dereferenceable(1) %1) #21
  %60 = icmp eq i32 %59, 0
  br i1 %60, label %.critedge94, label %61

61:                                               ; preds = %57
  %62 = load i8, ptr %58, align 1
  %63 = icmp eq i8 %62, 45
  br i1 %63, label %57, label %.critedge94

64:                                               ; preds = %47
  %.not86 = icmp eq i8 %38, 45
  br i1 %.not86, label %65, label %.critedge94

65:                                               ; preds = %64
  %66 = call i32 @strcasecmp(ptr noundef nonnull %45, ptr noundef nonnull %1) #21
  %67 = icmp eq i32 %66, 0
  %68 = zext i1 %67 to i32
  br label %.critedge94

.critedge94:                                      ; preds = %49, %57, %61, %64, %65
  %.167 = phi i32 [ %68, %65 ], [ 0, %64 ], [ 1, %57 ], [ 0, %61 ], [ 1, %49 ]
  %.not88 = icmp eq ptr %.068, null
  br i1 %.not88, label %70, label %69

69:                                               ; preds = %.critedge94
  call void @free(ptr noundef nonnull %.068) #19
  br label %70

70:                                               ; preds = %69, %.critedge94
  %.not89 = icmp eq i32 %.167, 0
  br i1 %.not89, label %72, label %71

71:                                               ; preds = %70
  call void (ptr, ...) @cli_dbgmsg(ptr noundef nonnull @.str.182, ptr noundef nonnull %1, ptr noundef nonnull %0) #19
  br label %72

72:                                               ; preds = %71, %70
  br i1 %.not78, label %74, label %73

73:                                               ; preds = %72
  call void @free(ptr noundef %spec.select) #19
  br label %74

74:                                               ; preds = %72, %73, %42, %43, %24, %25, %19, %20, %2, %5
  %.071 = phi i32 [ 0, %5 ], [ 0, %2 ], [ 0, %20 ], [ 0, %19 ], [ 0, %25 ], [ 0, %24 ], [ 0, %43 ], [ 0, %42 ], [ %.167, %73 ], [ %.167, %72 ]
  ret i32 %.071
}